target datalayout = "e-m:e-p270:32:32-p271:32:32-p272:64:64-i64:64-i128:128-f80:128-n8:16:32:64-S128"
target triple = "x86_64-unknown-linux-gnu"

; Function Attrs: mustprogress nounwind uwtable
define hidden noundef i32 @_ZN2dd11bdd_manager11apply_constEjjNS0_6bdd_opE(ptr noundef nonnull align 8 dereferenceable(728) %this, i32 noundef %a, i32 noundef %b, i32 noundef %op) #5 align 2 {
entry:
  %retval = alloca i32, align 4
  %this.addr = alloca ptr, align 8
  %a.addr = alloca i32, align 4
  %b.addr = alloca i32, align 4
  %op.addr = alloca i32, align 4
  store ptr %this, ptr %this.addr, align 8
  store i32 %a, ptr %a.addr, align 4
  store i32 %b, ptr %b.addr, align 4
  store i32 %op, ptr %op.addr, align 4
  %0 = load i32, ptr %op.addr, align 4
  switch i32 %0, label %sw.default [
    i32 2, label %sw.bb
    i32 3, label %sw.bb3
    i32 4, label %sw.bb7
  ]

sw.bb:                                            ; preds = %entry
  %1 = load i32, ptr %a.addr, align 4
  %cmp = icmp eq i32 %1, 1
  br i1 %cmp, label %land.rhs, label %land.end

land.rhs:                                         ; preds = %sw.bb
  %2 = load i32, ptr %b.addr, align 4
  %cmp2 = icmp eq i32 %2, 1
  br label %land.end

land.end:                                         ; preds = %land.rhs, %sw.bb
  %3 = phi i1 [ false, %sw.bb ], [ %cmp2, %land.rhs ]
  %cond = select i1 %3, i32 1, i32 0
  store i32 %cond, ptr %retval, align 4
  br label %return

sw.bb3:                                           ; preds = %entry
  %4 = load i32, ptr %a.addr, align 4
  %cmp4 = icmp eq i32 %4, 1
  br i1 %cmp4, label %lor.end, label %lor.rhs

lor.rhs:                                          ; preds = %sw.bb3
  %5 = load i32, ptr %b.addr, align 4
  %cmp5 = icmp eq i32 %5, 1
  br label %lor.end

lor.end:                                          ; preds = %lor.rhs, %sw.bb3
  %6 = phi i1 [ true, %sw.bb3 ], [ %cmp5, %lor.rhs ]
  %cond6 = select i1 %6, i32 1, i32 0
  store i32 %cond6, ptr %retval, align 4
  br label %return

sw.bb7:                                           ; preds = %entry
  %7 = load i32, ptr %a.addr, align 4
  %8 = load i32, ptr %b.addr, align 4
  %cmp8 = icmp eq i32 %7, %8
  %cond9 = select i1 %cmp8, i32 0, i32 1
  store i32 %cond9, ptr %retval, align 4
  br label %return

sw.default:                                       ; preds = %entry
  store i32 0, ptr %retval, align 4
  br label %return

return:                                           ; preds = %sw.default, %sw.bb7, %lor.end, %land.end
  %9 = load i32, ptr %retval, align 4
  ret i32 %9
}