; Function Attrs: mustprogress nofree norecurse nosync nounwind willreturn memory(none) uwtable
define hidden noundef i32 @_ZN2dd11bdd_manager11apply_constEjjNS0_6bdd_opE(ptr nocapture noundef nonnull readnone align 8 dereferenceable(728) %this, i32 noundef %a, i32 noundef %b, i32 noundef %op) local_unnamed_addr #4 align 2 {
entry:
  switch i32 %op, label %return [
    i32 2, label %sw.bb
    i32 3, label %sw.bb3
    i32 4, label %sw.bb7
  ]

sw.bb:                                            ; preds = %entry
  %cmp = icmp eq i32 %a, 1
  %cmp2 = icmp eq i32 %b, 1
  %0 = and i1 %cmp, %cmp2
  br label %return

sw.bb3:                                           ; preds = %entry
  %cmp4 = icmp eq i32 %a, 1
  %cmp5 = icmp eq i32 %b, 1
  %1 = or i1 %cmp4, %cmp5
  br label %return

sw.bb7:                                           ; preds = %entry
  %cmp8 = icmp ne i32 %a, %b
  br label %return

return:                                           ; preds = %entry, %sw.bb7, %sw.bb3, %sw.bb
  %retval.0.shrunk = phi i1 [ %cmp8, %sw.bb7 ], [ %1, %sw.bb3 ], [ %0, %sw.bb ], [ false, %entry ]
  %retval.0 = zext i1 %retval.0.shrunk to i32
  ret i32 %retval.0
}